target datalayout = "e-m:e-p270:32:32-p271:32:32-p272:64:64-i64:64-i128:128-f80:128-n8:16:32:64-S128"
target triple = "x86_64-pc-linux-gnu"

%class.GraphKit = type <{ ptr, %class.Phase, ptr, ptr, ptr, ptr, i32, [4 x i8], ptr, ptr, i32, [4 x i8] }>
%class.Phase = type { i32, ptr }
%class.Parse = type { %class.GraphKit.base, ptr, float, float, i32, ptr, i32, ptr, ptr, i32, [4 x i8], %class.GraphKit, i8, i8, i8, i8, ptr, ptr, %class.ciBytecodeStream, ptr, i8, i8, i32 }
%class.GraphKit.base = type <{ ptr, %class.Phase, ptr, ptr, ptr, ptr, i32, [4 x i8], ptr, ptr, i32 }>
%class.ciBytecodeStream = type { ptr, ptr, ptr, ptr, ptr, ptr, ptr, ptr, i32, i32 }

@.str.7 = private unnamed_addr constant [12 x i8] c"taken never\00", align 1
@_ZN9Bytecodes6_depthE = external constant [239 x i8], align 16

; Function Attrs: mustprogress nounwind uwtable
define linkonce_odr hidden void @_ZN8GraphKit6set_spEi(ptr noundef nonnull align 8 dereferenceable(84) %0, i32 noundef %1) #1 comdat align 2 {
  %3 = alloca ptr, align 8
  %4 = alloca i32, align 4
  store ptr %0, ptr %3, align 8
  store i32 %1, ptr %4, align 4
  %5 = load ptr, ptr %3, align 8
  %6 = load i32, ptr %4, align 4
  %7 = getelementptr inbounds %class.GraphKit, ptr %5, i32 0, i32 10
  store i32 %6, ptr %7, align 8
  ret void
}

; Function Attrs: mustprogress nounwind uwtable
define linkonce_odr hidden noundef i32 @_ZNK8GraphKit2spEv(ptr noundef nonnull align 8 dereferenceable(84) %0) #1 comdat align 2 {
  %2 = alloca ptr, align 8
  store ptr %0, ptr %2, align 8
  %3 = load ptr, ptr %2, align 8
  %4 = getelementptr inbounds %class.GraphKit, ptr %3, i32 0, i32 10
  %5 = load i32, ptr %4, align 8
  ret i32 %5
}

; Function Attrs: mustprogress nounwind uwtable
define linkonce_odr hidden void @_ZN9Bytecodes5checkENS_4CodeE(i32 noundef %0) #1 comdat align 2 {
  %2 = alloca i32, align 4
  store i32 %0, ptr %2, align 4
  ret void
}

; Function Attrs: mustprogress nounwind uwtable
define linkonce_odr hidden noundef i32 @_ZN16ciBytecodeStream10check_javaEN9Bytecodes4CodeE(i32 noundef %0) #1 comdat align 2 {
  %2 = alloca i32, align 4
  store i32 %0, ptr %2, align 4
  %3 = load i32, ptr %2, align 4
  ret i32 %3
}

; Function Attrs: mustprogress nounwind uwtable
define linkonce_odr hidden noundef i32 @_ZN14Deoptimization17make_trap_requestENS_11DeoptReasonENS_11DeoptActionEi(i32 noundef %0, i32 noundef %1, i32 noundef %2) #1 comdat align 2 {
  %4 = alloca i32, align 4
  %5 = alloca i32, align 4
  %6 = alloca i32, align 4
  %7 = alloca i32, align 4
  store i32 %0, ptr %4, align 4
  store i32 %1, ptr %5, align 4
  store i32 %2, ptr %6, align 4
  %8 = load i32, ptr %6, align 4
  %9 = icmp ne i32 %8, -1
  br i1 %9, label %10, label %12

10:                                               ; preds = %3
  %11 = load i32, ptr %6, align 4
  store i32 %11, ptr %7, align 4
  br label %19

12:                                               ; preds = %3
  %13 = load i32, ptr %4, align 4
  %14 = shl i32 %13, 3
  %15 = load i32, ptr %5, align 4
  %16 = shl i32 %15, 0
  %17 = add nsw i32 %14, %16
  %18 = xor i32 %17, -1
  store i32 %18, ptr %7, align 4
  br label %19

19:                                               ; preds = %12, %10
  %20 = load i32, ptr %7, align 4
  ret i32 %20
}

; Function Attrs: mustprogress nounwind uwtable
define linkonce_odr hidden void @_ZN8GraphKit6inc_spEi(ptr noundef nonnull align 8 dereferenceable(84) %0, i32 noundef %1) #1 comdat align 2 {
  %3 = alloca ptr, align 8
  %4 = alloca i32, align 4
  store ptr %0, ptr %3, align 8
  store i32 %1, ptr %4, align 4
  %5 = load ptr, ptr %3, align 8
  %6 = call noundef i32 @_ZNK8GraphKit2spEv(ptr noundef nonnull align 8 dereferenceable(84) %5)
  %7 = load i32, ptr %4, align 4
  %8 = add nsw i32 %6, %7
  call void @_ZN8GraphKit6set_spEi(ptr noundef nonnull align 8 dereferenceable(84) %5, i32 noundef %8)
  ret void
}

; Function Attrs: mustprogress nounwind uwtable
define linkonce_odr hidden noundef i32 @_ZN9Bytecodes5depthENS_4CodeE(i32 noundef %0) #1 comdat align 2 {
  %2 = alloca i32, align 4
  store i32 %0, ptr %2, align 4
  %3 = load i32, ptr %2, align 4
  call void @_ZN9Bytecodes5checkENS_4CodeE(i32 noundef %3)
  %4 = load i32, ptr %2, align 4
  %5 = sext i32 %4 to i64
  %6 = getelementptr inbounds [239 x i8], ptr @_ZN9Bytecodes6_depthE, i64 0, i64 %5
  %7 = load i8, ptr %6, align 1
  %8 = sext i8 %7 to i32
  ret i32 %8
}

; Function Attrs: mustprogress nounwind uwtable
define linkonce_odr hidden noundef i32 @_ZNK16ciBytecodeStream6cur_bcEv(ptr noundef nonnull align 8 dereferenceable(72) %0) #1 comdat align 2 {
  %2 = alloca ptr, align 8
  store ptr %0, ptr %2, align 8
  %3 = load ptr, ptr %2, align 8
  %4 = getelementptr inbounds %class.ciBytecodeStream, ptr %3, i32 0, i32 8
  %5 = load i32, ptr %4, align 8
  %6 = call noundef i32 @_ZN16ciBytecodeStream10check_javaEN9Bytecodes4CodeE(i32 noundef %5)
  ret i32 %6
}

; Function Attrs: mustprogress nounwind uwtable
define linkonce_odr hidden noundef nonnull align 8 dereferenceable(72) ptr @_ZN5Parse4iterEv(ptr noundef nonnull align 8 dereferenceable(352) %0) #1 comdat align 2 {
  %2 = alloca ptr, align 8
  store ptr %0, ptr %2, align 8
  %3 = load ptr, ptr %2, align 8
  %4 = getelementptr inbounds %class.Parse, ptr %3, i32 0, i32 18
  ret ptr %4
}

; Function Attrs: mustprogress nounwind uwtable
define linkonce_odr hidden noundef ptr @_ZN8GraphKit13uncommon_trapEN14Deoptimization11DeoptReasonENS0_11DeoptActionEP7ciKlassPKcbb(ptr noundef nonnull align 8 dereferenceable(84) %0, i32 noundef %1, i32 noundef %2, ptr noundef %3, ptr noundef %4, i1 noundef zeroext %5, i1 noundef zeroext %6) #1 comdat align 2 {
  %8 = alloca ptr, align 8
  %9 = alloca i32, align 4
  %10 = alloca i32, align 4
  %11 = alloca ptr, align 8
  %12 = alloca ptr, align 8
  %13 = alloca i8, align 1
  %14 = alloca i8, align 1
  store ptr %0, ptr %8, align 8
  store i32 %1, ptr %9, align 4
  store i32 %2, ptr %10, align 4
  store ptr %3, ptr %11, align 8
  store ptr %4, ptr %12, align 8
  %15 = zext i1 %5 to i8
  store i8 %15, ptr %13, align 1
  %16 = zext i1 %6 to i8
  store i8 %16, ptr %14, align 1
  %17 = load ptr, ptr %8, align 8
  %18 = load i32, ptr %9, align 4
  %19 = load i32, ptr %10, align 4
  %20 = call noundef i32 @_ZN14Deoptimization17make_trap_requestENS_11DeoptReasonENS_11DeoptActionEi(i32 noundef %18, i32 noundef %19, i32 noundef -1)
  %21 = load ptr, ptr %11, align 8
  %22 = load ptr, ptr %12, align 8
  %23 = load i8, ptr %13, align 1
  %24 = trunc i8 %23 to i1
  %25 = load i8, ptr %14, align 1
  %26 = trunc i8 %25 to i1
  %27 = call noundef ptr @_ZN8GraphKit13uncommon_trapEiP7ciKlassPKcbb(ptr noundef nonnull align 8 dereferenceable(84) %17, i32 noundef %20, ptr noundef %21, ptr noundef %22, i1 noundef zeroext %24, i1 noundef zeroext %26)
  ret ptr %27
}

; Function Attrs: mustprogress nounwind uwtable
define linkonce_odr hidden noundef i32 @_ZN5Parse14repush_if_argsEv(ptr noundef nonnull align 8 dereferenceable(352) %0) #1 comdat align 2 {
  %2 = alloca ptr, align 8
  %3 = alloca i32, align 4
  store ptr %0, ptr %2, align 8
  %4 = load ptr, ptr %2, align 8
  %5 = call noundef nonnull align 8 dereferenceable(72) ptr @_ZN5Parse4iterEv(ptr noundef nonnull align 8 dereferenceable(352) %4)
  %6 = call noundef i32 @_ZNK16ciBytecodeStream6cur_bcEv(ptr noundef nonnull align 8 dereferenceable(72) %5)
  %7 = call noundef i32 @_ZN9Bytecodes5depthENS_4CodeE(i32 noundef %6)
  %8 = sub nsw i32 0, %7
  store i32 %8, ptr %3, align 4
  %9 = load i32, ptr %3, align 4
  call void @_ZN8GraphKit6inc_spEi(ptr noundef nonnull align 8 dereferenceable(84) %4, i32 noundef %9)
  %10 = load i32, ptr %3, align 4
  ret i32 %10
}

; Function Attrs: mustprogress nounwind uwtable
define hidden void @_ZN5Parse19jump_if_always_forkEib(ptr noundef nonnull align 8 dereferenceable(352) %0, i32 noundef %1, i1 noundef zeroext %2) #1 align 2 {
  %4 = alloca ptr, align 8
  %5 = alloca i32, align 4
  %6 = alloca i8, align 1
  store ptr %0, ptr %4, align 8
  store i32 %1, ptr %5, align 4
  %7 = zext i1 %2 to i8
  store i8 %7, ptr %6, align 1
  %8 = load ptr, ptr %4, align 8
  %9 = load i8, ptr %6, align 1
  %10 = trunc i8 %9 to i1
  br i1 %10, label %11, label %14

11:                                               ; preds = %3
  %12 = call noundef i32 @_ZN5Parse14repush_if_argsEv(ptr noundef nonnull align 8 dereferenceable(352) %8)
  %13 = call noundef ptr @_ZN8GraphKit13uncommon_trapEN14Deoptimization11DeoptReasonENS0_11DeoptActionEP7ciKlassPKcbb(ptr noundef nonnull align 8 dereferenceable(84) %8, i32 noundef 22, i32 noundef 2, ptr noundef null, ptr noundef @.str.7, i1 noundef zeroext false, i1 noundef zeroext false)
  br label %16

14:                                               ; preds = %3
  %15 = load i32, ptr %5, align 4
  call void @_ZN5Parse14merge_new_pathEi(ptr noundef nonnull align 8 dereferenceable(352) %8, i32 noundef %15)
  br label %16

16:                                               ; preds = %14, %11
  ret void
}