; Function Attrs: mustprogress nounwind uwtable
define hidden void @_ZN5Parse19jump_if_always_forkEib(ptr noundef nonnull align 8 dereferenceable(352) %0, i32 noundef %1, i1 noundef zeroext %2) local_unnamed_addr #0 align 2 {
  br i1 %2, label %4, label %15

4:                                                ; preds = %3
  %5 = getelementptr inbounds i8, ptr %0, i64 328
  %6 = load i32, ptr %5, align 8
  %7 = sext i32 %6 to i64
  %8 = getelementptr inbounds [239 x i8], ptr @_ZN9Bytecodes6_depthE, i64 0, i64 %7
  %9 = load i8, ptr %8, align 1
  %10 = sext i8 %9 to i32
  %11 = getelementptr inbounds i8, ptr %0, i64 80
  %12 = load i32, ptr %11, align 8
  %13 = sub i32 %12, %10
  store i32 %13, ptr %11, align 8
  %14 = tail call noundef ptr @_ZN8GraphKit13uncommon_trapEiP7ciKlassPKcbb(ptr noundef nonnull align 8 dereferenceable(84) %0, i32 noundef -179, ptr noundef null, ptr noundef nonnull @.str.7, i1 noundef zeroext false, i1 noundef zeroext false) #15
  br label %16

15:                                               ; preds = %3
  tail call void @_ZN5Parse14merge_new_pathEi(ptr noundef nonnull align 8 dereferenceable(352) %0, i32 noundef %1) #15
  br label %16

16:                                               ; preds = %15, %4
  ret void
}